; ModuleID = '55/580.c'
source_filename = "55/580.c"
target datalayout = "e-m:e-p270:32:32-p271:32:32-p272:64:64-i64:64-f80:128-n8:16:32:64-S128"
target triple = "x86_64-pc-linux-gnu"

@.str = private unnamed_addr constant [3 x i8] c"%d\00", align 1
@.str.1 = private unnamed_addr constant [3 x i8] c"%s\00", align 1
@.str.2 = private unnamed_addr constant [3 x i8] c"%c\00", align 1

; Function Attrs: noinline nounwind uwtable
define dso_local i32 @main() #0 {
  %1 = alloca i32, align 4
  %2 = alloca i64, align 8
  %3 = alloca i32, align 4
  %4 = alloca i32, align 4
  %5 = alloca i32, align 4
  %6 = alloca i32, align 4
  %7 = alloca i32, align 4
  %8 = alloca i32, align 4
  %9 = alloca [100 x i8], align 16
  %10 = alloca [100 x i8], align 16
  store i32 0, i32* %1, align 4
  store i64 0, i64* %2, align 8
  store i32 1, i32* %5, align 4
  %11 = call i32 (i8*, ...) @__isoc99_scanf(i8* getelementptr inbounds ([3 x i8], [3 x i8]* @.str, i64 0, i64 0), i32* %3)
  %12 = getelementptr inbounds [100 x i8], [100 x i8]* %9, i64 0, i64 0
  %13 = call i32 (i8*, ...) @__isoc99_scanf(i8* getelementptr inbounds ([3 x i8], [3 x i8]* @.str.1, i64 0, i64 0), i8* %12)
  %14 = call i32 (i8*, ...) @__isoc99_scanf(i8* getelementptr inbounds ([3 x i8], [3 x i8]* @.str, i64 0, i64 0), i32* %4)
  %15 = getelementptr inbounds [100 x i8], [100 x i8]* %9, i64 0, i64 0
  %16 = call i64 @strlen(i8* %15) #3
  %17 = trunc i64 %16 to i32
  store i32 %17, i32* %8, align 4
  store i32 0, i32* %6, align 4
  br label %18

18:                                               ; preds = %88, %0
  %19 = load i32, i32* %6, align 4
  %20 = load i32, i32* %8, align 4
  %21 = sub nsw i32 %20, 1
  %22 = icmp sle i32 %19, %21
  br i1 %22, label %23, label %91

23:                                               ; preds = %18
  %24 = load i32, i32* %6, align 4
  %25 = sext i32 %24 to i64
  %26 = getelementptr inbounds [100 x i8], [100 x i8]* %9, i64 0, i64 %25
  %27 = load i8, i8* %26, align 1
  %28 = sext i8 %27 to i32
  %29 = icmp sge i32 %28, 97
  br i1 %29, label %30, label %49

30:                                               ; preds = %23
  %31 = load i32, i32* %6, align 4
  %32 = sext i32 %31 to i64
  %33 = getelementptr inbounds [100 x i8], [100 x i8]* %9, i64 0, i64 %32
  %34 = load i8, i8* %33, align 1
  %35 = sext i8 %34 to i32
  %36 = icmp sle i32 %35, 122
  br i1 %36, label %37, label %49

37:                                               ; preds = %30
  %38 = load i32, i32* %6, align 4
  %39 = sext i32 %38 to i64
  %40 = getelementptr inbounds [100 x i8], [100 x i8]* %9, i64 0, i64 %39
  %41 = load i8, i8* %40, align 1
  %42 = sext i8 %41 to i32
  %43 = sub nsw i32 %42, 97
  %44 = add nsw i32 %43, 10
  %45 = trunc i32 %44 to i8
  %46 = load i32, i32* %6, align 4
  %47 = sext i32 %46 to i64
  %48 = getelementptr inbounds [100 x i8], [100 x i8]* %10, i64 0, i64 %47
  store i8 %45, i8* %48, align 1
  br label %87

49:                                               ; preds = %30, %23
  %50 = load i32, i32* %6, align 4
  %51 = sext i32 %50 to i64
  %52 = getelementptr inbounds [100 x i8], [100 x i8]* %9, i64 0, i64 %51
  %53 = load i8, i8* %52, align 1
  %54 = sext i8 %53 to i32
  %55 = icmp sge i32 %54, 65
  br i1 %55, label %56, label %75

56:                                               ; preds = %49
  %57 = load i32, i32* %6, align 4
  %58 = sext i32 %57 to i64
  %59 = getelementptr inbounds [100 x i8], [100 x i8]* %9, i64 0, i64 %58
  %60 = load i8, i8* %59, align 1
  %61 = sext i8 %60 to i32
  %62 = icmp sle i32 %61, 90
  br i1 %62, label %63, label %75

63:                                               ; preds = %56
  %64 = load i32, i32* %6, align 4
  %65 = sext i32 %64 to i64
  %66 = getelementptr inbounds [100 x i8], [100 x i8]* %9, i64 0, i64 %65
  %67 = load i8, i8* %66, align 1
  %68 = sext i8 %67 to i32
  %69 = sub nsw i32 %68, 65
  %70 = add nsw i32 %69, 10
  %71 = trunc i32 %70 to i8
  %72 = load i32, i32* %6, align 4
  %73 = sext i32 %72 to i64
  %74 = getelementptr inbounds [100 x i8], [100 x i8]* %10, i64 0, i64 %73
  store i8 %71, i8* %74, align 1
  br label %86

75:                                               ; preds = %56, %49
  %76 = load i32, i32* %6, align 4
  %77 = sext i32 %76 to i64
  %78 = getelementptr inbounds [100 x i8], [100 x i8]* %9, i64 0, i64 %77
  %79 = load i8, i8* %78, align 1
  %80 = sext i8 %79 to i32
  %81 = sub nsw i32 %80, 48
  %82 = trunc i32 %81 to i8
  %83 = load i32, i32* %6, align 4
  %84 = sext i32 %83 to i64
  %85 = getelementptr inbounds [100 x i8], [100 x i8]* %10, i64 0, i64 %84
  store i8 %82, i8* %85, align 1
  br label %86

86:                                               ; preds = %75, %63
  br label %87

87:                                               ; preds = %86, %37
  br label %88

88:                                               ; preds = %87
  %89 = load i32, i32* %6, align 4
  %90 = add nsw i32 %89, 1
  store i32 %90, i32* %6, align 4
  br label %18

91:                                               ; preds = %18
  %92 = load i32, i32* %8, align 4
  %93 = sub nsw i32 %92, 1
  store i32 %93, i32* %6, align 4
  br label %94

94:                                               ; preds = %111, %91
  %95 = load i32, i32* %6, align 4
  %96 = icmp sge i32 %95, 0
  br i1 %96, label %97, label %114

97:                                               ; preds = %94
  %98 = load i32, i32* %6, align 4
  %99 = sext i32 %98 to i64
  %100 = getelementptr inbounds [100 x i8], [100 x i8]* %10, i64 0, i64 %99
  %101 = load i8, i8* %100, align 1
  %102 = sext i8 %101 to i32
  %103 = load i32, i32* %5, align 4
  %104 = mul nsw i32 %102, %103
  %105 = sext i32 %104 to i64
  %106 = load i64, i64* %2, align 8
  %107 = add nsw i64 %106, %105
  store i64 %107, i64* %2, align 8
  %108 = load i32, i32* %3, align 4
  %109 = load i32, i32* %5, align 4
  %110 = mul nsw i32 %109, %108
  store i32 %110, i32* %5, align 4
  br label %111

111:                                              ; preds = %97
  %112 = load i32, i32* %6, align 4
  %113 = add nsw i32 %112, -1
  store i32 %113, i32* %6, align 4
  br label %94

114:                                              ; preds = %94
  store i32 0, i32* %6, align 4
  br label %115

115:                                              ; preds = %133, %114
  %116 = load i64, i64* %2, align 8
  %117 = load i32, i32* %4, align 4
  %118 = sext i32 %117 to i64
  %119 = srem i64 %116, %118
  %120 = trunc i64 %119 to i8
  %121 = load i32, i32* %6, align 4
  %122 = sext i32 %121 to i64
  %123 = getelementptr inbounds [100 x i8], [100 x i8]* %10, i64 0, i64 %122
  store i8 %120, i8* %123, align 1
  %124 = load i64, i64* %2, align 8
  %125 = load i32, i32* %4, align 4
  %126 = sext i32 %125 to i64
  %127 = sdiv i64 %124, %126
  store i64 %127, i64* %2, align 8
  %128 = load i64, i64* %2, align 8
  %129 = icmp eq i64 %128, 0
  br i1 %129, label %130, label %132

130:                                              ; preds = %115
  %131 = load i32, i32* %6, align 4
  store i32 %131, i32* %7, align 4
  br label %136

132:                                              ; preds = %115
  br label %133

133:                                              ; preds = %132
  %134 = load i32, i32* %6, align 4
  %135 = add nsw i32 %134, 1
  store i32 %135, i32* %6, align 4
  br label %115

136:                                              ; preds = %130
  %137 = load i32, i32* %7, align 4
  store i32 %137, i32* %6, align 4
  br label %138

138:                                              ; preds = %173, %136
  %139 = load i32, i32* %6, align 4
  %140 = icmp sge i32 %139, 0
  br i1 %140, label %141, label %176

141:                                              ; preds = %138
  %142 = load i32, i32* %6, align 4
  %143 = sext i32 %142 to i64
  %144 = getelementptr inbounds [100 x i8], [100 x i8]* %10, i64 0, i64 %143
  %145 = load i8, i8* %144, align 1
  %146 = sext i8 %145 to i32
  %147 = icmp sge i32 %146, 0
  br i1 %147, label %148, label %163

148:                                              ; preds = %141
  %149 = load i32, i32* %6, align 4
  %150 = sext i32 %149 to i64
  %151 = getelementptr inbounds [100 x i8], [100 x i8]* %10, i64 0, i64 %150
  %152 = load i8, i8* %151, align 1
  %153 = sext i8 %152 to i32
  %154 = icmp sle i32 %153, 9
  br i1 %154, label %155, label %163

155:                                              ; preds = %148
  %156 = load i32, i32* %6, align 4
  %157 = sext i32 %156 to i64
  %158 = getelementptr inbounds [100 x i8], [100 x i8]* %10, i64 0, i64 %157
  %159 = load i8, i8* %158, align 1
  %160 = sext i8 %159 to i32
  %161 = add nsw i32 %160, 48
  %162 = call i32 (i8*, ...) @printf(i8* getelementptr inbounds ([3 x i8], [3 x i8]* @.str.2, i64 0, i64 0), i32 %161)
  br label %172

163:                                              ; preds = %148, %141
  %164 = load i32, i32* %6, align 4
  %165 = sext i32 %164 to i64
  %166 = getelementptr inbounds [100 x i8], [100 x i8]* %10, i64 0, i64 %165
  %167 = load i8, i8* %166, align 1
  %168 = sext i8 %167 to i32
  %169 = sub nsw i32 %168, 10
  %170 = add nsw i32 %169, 65
  %171 = call i32 (i8*, ...) @printf(i8* getelementptr inbounds ([3 x i8], [3 x i8]* @.str.2, i64 0, i64 0), i32 %170)
  br label %172

172:                                              ; preds = %163, %155
  br label %173

173:                                              ; preds = %172
  %174 = load i32, i32* %6, align 4
  %175 = add nsw i32 %174, -1
  store i32 %175, i32* %6, align 4
  br label %138

176:                                              ; preds = %138
  %177 = load i32, i32* %1, align 4
  ret i32 %177
}

declare dso_local i32 @__isoc99_scanf(i8*, ...) #1

; Function Attrs: nounwind readonly
declare dso_local i64 @strlen(i8*) #2

declare dso_local i32 @printf(i8*, ...) #1


!llvm.module.flags = !{!0}
!llvm.ident = !{!1}

!0 = !{i32 1, !"wchar_size", i32 4}
!1 = !{!"clang version 10.0.0-4ubuntu1 "}
